target datalayout = "e-m:e-p270:32:32-p271:32:32-p272:64:64-i64:64-i128:128-f80:128-n8:16:32:64-S128"
target triple = "x86_64-unknown-linux-gnu"

%class.ThreadPool = type <{ ptr, %"class.std::mutex", %"class.std::condition_variable", %"class.std::vector", i8, [7 x i8] }>
%"class.std::mutex" = type { %"class.std::__mutex_base" }
%"class.std::__mutex_base" = type { %union.pthread_mutex_t }
%union.pthread_mutex_t = type { %struct.__pthread_mutex_s }
%struct.__pthread_mutex_s = type { i32, i32, i32, i32, i32, i16, i16, %struct.__pthread_internal_list }
%struct.__pthread_internal_list = type { ptr, ptr }
%"class.std::condition_variable" = type { %"class.std::__condvar" }
%"class.std::__condvar" = type { %union.pthread_cond_t }
%union.pthread_cond_t = type { %struct.__pthread_cond_s }
%struct.__pthread_cond_s = type { %union.__atomic_wide_counter, %union.__atomic_wide_counter, [2 x i32], [2 x i32], i32, i32, [2 x i32] }
%union.__atomic_wide_counter = type { i64 }
%"class.std::vector" = type { %"struct.std::_Vector_base" }
%"struct.std::_Vector_base" = type { %"struct.std::_Vector_base<std::thread, std::allocator<std::thread>>::_Vector_impl" }
%"struct.std::_Vector_base<std::thread, std::allocator<std::thread>>::_Vector_impl" = type { %"struct.std::_Vector_base<std::thread, std::allocator<std::thread>>::_Vector_impl_data" }
%"struct.std::_Vector_base<std::thread, std::allocator<std::thread>>::_Vector_impl_data" = type { ptr, ptr, ptr }
%class.ParallelJob = type <{ ptr, ptr, ptr, i32, i8, [3 x i8] }>

; Function Attrs: mustprogress nounwind uwtable
define dso_local void @_ZN10ThreadPool17RemoveFromJobListEP11ParallelJob(ptr noundef nonnull align 8 dereferenceable(121) %this, ptr noundef %job) #4 align 2 {
entry:
  %this.addr = alloca ptr, align 8
  %job.addr = alloca ptr, align 8
  store ptr %this, ptr %this.addr, align 8
  store ptr %job, ptr %job.addr, align 8
  %this1 = load ptr, ptr %this.addr, align 8
  %0 = load ptr, ptr %job.addr, align 8
  %prev = getelementptr inbounds %class.ParallelJob, ptr %0, i32 0, i32 1
  %1 = load ptr, ptr %prev, align 8
  %cmp = icmp ne ptr %1, null
  br i1 %cmp, label %if.then, label %if.else

if.then:                                          ; preds = %entry
  %2 = load ptr, ptr %job.addr, align 8
  %next = getelementptr inbounds %class.ParallelJob, ptr %2, i32 0, i32 2
  %3 = load ptr, ptr %next, align 8
  %4 = load ptr, ptr %job.addr, align 8
  %prev2 = getelementptr inbounds %class.ParallelJob, ptr %4, i32 0, i32 1
  %5 = load ptr, ptr %prev2, align 8
  %next3 = getelementptr inbounds %class.ParallelJob, ptr %5, i32 0, i32 2
  store ptr %3, ptr %next3, align 8
  br label %if.end

if.else:                                          ; preds = %entry
  %6 = load ptr, ptr %job.addr, align 8
  %next4 = getelementptr inbounds %class.ParallelJob, ptr %6, i32 0, i32 2
  %7 = load ptr, ptr %next4, align 8
  %jobList = getelementptr inbounds %class.ThreadPool, ptr %this1, i32 0, i32 0
  store ptr %7, ptr %jobList, align 8
  br label %if.end

if.end:                                           ; preds = %if.else, %if.then
  %8 = load ptr, ptr %job.addr, align 8
  %next5 = getelementptr inbounds %class.ParallelJob, ptr %8, i32 0, i32 2
  %9 = load ptr, ptr %next5, align 8
  %cmp6 = icmp ne ptr %9, null
  br i1 %cmp6, label %if.then7, label %if.end11

if.then7:                                         ; preds = %if.end
  %10 = load ptr, ptr %job.addr, align 8
  %prev8 = getelementptr inbounds %class.ParallelJob, ptr %10, i32 0, i32 1
  %11 = load ptr, ptr %prev8, align 8
  %12 = load ptr, ptr %job.addr, align 8
  %next9 = getelementptr inbounds %class.ParallelJob, ptr %12, i32 0, i32 2
  %13 = load ptr, ptr %next9, align 8
  %prev10 = getelementptr inbounds %class.ParallelJob, ptr %13, i32 0, i32 1
  store ptr %11, ptr %prev10, align 8
  br label %if.end11

if.end11:                                         ; preds = %if.then7, %if.end
  %14 = load ptr, ptr %job.addr, align 8
  %removed = getelementptr inbounds %class.ParallelJob, ptr %14, i32 0, i32 4
  store i8 1, ptr %removed, align 4
  ret void
}