; Function Attrs: mustprogress nofree norecurse nosync nounwind willreturn memory(write, argmem: readwrite, inaccessiblemem: none) uwtable
define dso_local void @_ZN10ThreadPool17RemoveFromJobListEP11ParallelJob(ptr nocapture noundef nonnull writeonly align 8 dereferenceable(121) %this, ptr nocapture noundef %job) local_unnamed_addr #16 align 2 {
entry:
  %prev = getelementptr inbounds i8, ptr %job, i64 8
  %0 = load ptr, ptr %prev, align 8
  %cmp.not = icmp eq ptr %0, null
  %next4 = getelementptr inbounds i8, ptr %job, i64 16
  %1 = load ptr, ptr %next4, align 8
  %next3 = getelementptr inbounds i8, ptr %0, i64 16
  %this.sink = select i1 %cmp.not, ptr %this, ptr %next3
  store ptr %1, ptr %this.sink, align 8
  %cmp6.not = icmp eq ptr %1, null
  br i1 %cmp6.not, label %if.end11, label %if.then7

if.then7:                                         ; preds = %entry
  %2 = load ptr, ptr %prev, align 8
  %prev10 = getelementptr inbounds i8, ptr %1, i64 8
  store ptr %2, ptr %prev10, align 8
  br label %if.end11

if.end11:                                         ; preds = %if.then7, %entry
  %removed = getelementptr inbounds i8, ptr %job, i64 28
  store i8 1, ptr %removed, align 4
  ret void
}